target datalayout = "e-m:e-p270:32:32-p271:32:32-p272:64:64-i64:64-i128:128-f80:128-n8:16:32:64-S128"
target triple = "x86_64-pc-linux-gnu"

%struct.buffer_s = type { ptr, i64 }
%struct.Range = type { ptr, i64 }
%struct.RoundBuff_t = type { ptr, i64, i64 }
%struct.ZSTD_customMem = type { ptr, ptr, ptr }
%struct.ZSTDMT_CCtx_s = type { ptr, ptr, ptr, ptr, ptr, %struct.ZSTD_CCtx_params_s, i64, i64, i32, %struct.InBuff_t, %struct.RoundBuff_t, %struct.SerialState, %struct.RSyncState_t, i32, i32, i32, i32, i32, i64, i64, i64, %struct.ZSTD_customMem, ptr, ptr, i8 }
%struct.ZSTD_CCtx_params_s = type { i32, %struct.ZSTD_compressionParameters, %struct.ZSTD_frameParameters, i32, i32, i64, i32, i32, i32, i32, i64, i32, i32, %struct.ldmParams_t, i32, i32, i32, i32, i32, i32, i32, i64, i32, i32, %struct.ZSTD_customMem, i32, i32, ptr, ptr, i32 }
%struct.ZSTD_compressionParameters = type { i32, i32, i32, i32, i32, i32, i32 }
%struct.ZSTD_frameParameters = type { i32, i32, i32 }
%struct.ldmParams_t = type { i32, i32, i32, i32, i32, i32 }
%struct.InBuff_t = type { %struct.Range, %struct.buffer_s, i64 }
%struct.SerialState = type { %union.pthread_mutex_t, %union.pthread_cond_t, %struct.ZSTD_CCtx_params_s, %struct.ldmState_t, %struct.XXH64_state_s, i32, %union.pthread_mutex_t, %union.pthread_cond_t, %struct.ZSTD_window_t }
%struct.ldmState_t = type { %struct.ZSTD_window_t, ptr, i32, ptr, [64 x i64], [64 x %struct.ldmMatchCandidate_t] }
%struct.ldmMatchCandidate_t = type { ptr, i32, i32, ptr }
%struct.XXH64_state_s = type { i64, [4 x i64], [4 x i64], i32, i32, i64 }
%union.pthread_mutex_t = type { %struct.__pthread_mutex_s }
%struct.__pthread_mutex_s = type { i32, i32, i32, i32, i32, i16, i16, %struct.__pthread_internal_list }
%struct.__pthread_internal_list = type { ptr, ptr }
%union.pthread_cond_t = type { %struct.__pthread_cond_s }
%struct.__pthread_cond_s = type { %union.__atomic_wide_counter, %union.__atomic_wide_counter, [2 x i32], [2 x i32], i32, i32, [2 x i32] }
%union.__atomic_wide_counter = type { i64 }
%struct.ZSTD_window_t = type { ptr, ptr, ptr, i32, i32, i32 }
%struct.RSyncState_t = type { i64, i64, i64 }
%struct.ZSTDMT_bufferPool_s = type { %union.pthread_mutex_t, i64, i32, i32, %struct.ZSTD_customMem, ptr }
%struct.ZSTDMT_CCtxPool = type { %union.pthread_mutex_t, i32, i32, %struct.ZSTD_customMem, ptr }

; Function Attrs: nounwind uwtable
define internal i64 @ZSTDMT_sizeof_seqPool(ptr noundef %0) #0 {
  %2 = alloca ptr, align 8
  store ptr %0, ptr %2, align 8, !tbaa !56
  %3 = load ptr, ptr %2, align 8, !tbaa !56
  %4 = call i64 @ZSTDMT_sizeof_bufferPool(ptr noundef %3)
  ret i64 %4
}

; Function Attrs: nounwind uwtable
define internal i64 @ZSTDMT_sizeof_CCtxPool(ptr noundef %0) #0 {
  %2 = alloca ptr, align 8
  %3 = alloca i32, align 4
  %4 = alloca i64, align 8
  %5 = alloca i64, align 8
  %6 = alloca i64, align 8
  %7 = alloca i32, align 4
  store ptr %0, ptr %2, align 8, !tbaa !16
  %8 = load ptr, ptr %2, align 8, !tbaa !16
  %9 = getelementptr inbounds nuw %struct.ZSTDMT_CCtxPool, ptr %8, i32 0, i32 0
  %10 = call i32 @pthread_mutex_lock(ptr noundef %9) #11
  call void @llvm.lifetime.start.p0(i64 4, ptr %3) #11
  %11 = load ptr, ptr %2, align 8, !tbaa !16
  %12 = getelementptr inbounds nuw %struct.ZSTDMT_CCtxPool, ptr %11, i32 0, i32 1
  %13 = load i32, ptr %12, align 8, !tbaa !66
  store i32 %13, ptr %3, align 4, !tbaa !3
  call void @llvm.lifetime.start.p0(i64 8, ptr %4) #11
  store i64 80, ptr %4, align 8, !tbaa !45
  call void @llvm.lifetime.start.p0(i64 8, ptr %5) #11
  %14 = load ptr, ptr %2, align 8, !tbaa !16
  %15 = getelementptr inbounds nuw %struct.ZSTDMT_CCtxPool, ptr %14, i32 0, i32 1
  %16 = load i32, ptr %15, align 8, !tbaa !66
  %17 = sext i32 %16 to i64
  %18 = mul i64 %17, 8
  store i64 %18, ptr %5, align 8, !tbaa !45
  call void @llvm.lifetime.start.p0(i64 8, ptr %6) #11
  store i64 0, ptr %6, align 8, !tbaa !45
  call void @llvm.lifetime.start.p0(i64 4, ptr %7) #11
  store i32 0, ptr %7, align 4, !tbaa !3
  br label %19

19:                                               ; preds = %34, %1
  %20 = load i32, ptr %7, align 4, !tbaa !3
  %21 = load i32, ptr %3, align 4, !tbaa !3
  %22 = icmp ult i32 %20, %21
  br i1 %22, label %23, label %37

23:                                               ; preds = %19
  %24 = load ptr, ptr %2, align 8, !tbaa !16
  %25 = getelementptr inbounds nuw %struct.ZSTDMT_CCtxPool, ptr %24, i32 0, i32 4
  %26 = load ptr, ptr %25, align 8, !tbaa !63
  %27 = load i32, ptr %7, align 4, !tbaa !3
  %28 = zext i32 %27 to i64
  %29 = getelementptr inbounds nuw ptr, ptr %26, i64 %28
  %30 = load ptr, ptr %29, align 8, !tbaa !67
  %31 = call i64 @ZSTD_sizeof_CCtx(ptr noundef %30)
  %32 = load i64, ptr %6, align 8, !tbaa !45
  %33 = add i64 %32, %31
  store i64 %33, ptr %6, align 8, !tbaa !45
  br label %34

34:                                               ; preds = %23
  %35 = load i32, ptr %7, align 4, !tbaa !3
  %36 = add i32 %35, 1
  store i32 %36, ptr %7, align 4, !tbaa !3
  br label %19, !llvm.loop !76

37:                                               ; preds = %19
  %38 = load ptr, ptr %2, align 8, !tbaa !16
  %39 = getelementptr inbounds nuw %struct.ZSTDMT_CCtxPool, ptr %38, i32 0, i32 0
  %40 = call i32 @pthread_mutex_unlock(ptr noundef %39) #11
  %41 = load i64, ptr %5, align 8, !tbaa !45
  %42 = add i64 80, %41
  %43 = load i64, ptr %6, align 8, !tbaa !45
  %44 = add i64 %42, %43
  call void @llvm.lifetime.end.p0(i64 4, ptr %7) #11
  call void @llvm.lifetime.end.p0(i64 8, ptr %6) #11
  call void @llvm.lifetime.end.p0(i64 8, ptr %5) #11
  call void @llvm.lifetime.end.p0(i64 8, ptr %4) #11
  call void @llvm.lifetime.end.p0(i64 4, ptr %3) #11
  ret i64 %44
}

; Function Attrs: nounwind uwtable
define internal i64 @ZSTDMT_sizeof_bufferPool(ptr noundef %0) #0 {
  %2 = alloca ptr, align 8
  %3 = alloca i64, align 8
  %4 = alloca i64, align 8
  %5 = alloca i32, align 4
  %6 = alloca i64, align 8
  store ptr %0, ptr %2, align 8, !tbaa !56
  call void @llvm.lifetime.start.p0(i64 8, ptr %3) #11
  store i64 88, ptr %3, align 8, !tbaa !45
  call void @llvm.lifetime.start.p0(i64 8, ptr %4) #11
  %7 = load ptr, ptr %2, align 8, !tbaa !56
  %8 = getelementptr inbounds nuw %struct.ZSTDMT_bufferPool_s, ptr %7, i32 0, i32 2
  %9 = load i32, ptr %8, align 8, !tbaa !60
  %10 = zext i32 %9 to i64
  %11 = mul i64 %10, 16
  store i64 %11, ptr %4, align 8, !tbaa !45
  call void @llvm.lifetime.start.p0(i64 4, ptr %5) #11
  call void @llvm.lifetime.start.p0(i64 8, ptr %6) #11
  store i64 0, ptr %6, align 8, !tbaa !45
  %12 = load ptr, ptr %2, align 8, !tbaa !56
  %13 = getelementptr inbounds nuw %struct.ZSTDMT_bufferPool_s, ptr %12, i32 0, i32 0
  %14 = call i32 @pthread_mutex_lock(ptr noundef %13) #11
  store i32 0, ptr %5, align 4, !tbaa !3
  br label %15

15:                                               ; preds = %32, %1
  %16 = load i32, ptr %5, align 4, !tbaa !3
  %17 = load ptr, ptr %2, align 8, !tbaa !56
  %18 = getelementptr inbounds nuw %struct.ZSTDMT_bufferPool_s, ptr %17, i32 0, i32 2
  %19 = load i32, ptr %18, align 8, !tbaa !60
  %20 = icmp ult i32 %16, %19
  br i1 %20, label %21, label %35

21:                                               ; preds = %15
  %22 = load ptr, ptr %2, align 8, !tbaa !56
  %23 = getelementptr inbounds nuw %struct.ZSTDMT_bufferPool_s, ptr %22, i32 0, i32 5
  %24 = load ptr, ptr %23, align 8, !tbaa !57
  %25 = load i32, ptr %5, align 4, !tbaa !3
  %26 = zext i32 %25 to i64
  %27 = getelementptr inbounds nuw %struct.buffer_s, ptr %24, i64 %26
  %28 = getelementptr inbounds nuw %struct.buffer_s, ptr %27, i32 0, i32 1
  %29 = load i64, ptr %28, align 8, !tbaa !74
  %30 = load i64, ptr %6, align 8, !tbaa !45
  %31 = add i64 %30, %29
  store i64 %31, ptr %6, align 8, !tbaa !45
  br label %32

32:                                               ; preds = %21
  %33 = load i32, ptr %5, align 4, !tbaa !3
  %34 = add i32 %33, 1
  store i32 %34, ptr %5, align 4, !tbaa !3
  br label %15, !llvm.loop !75

35:                                               ; preds = %15
  %36 = load ptr, ptr %2, align 8, !tbaa !56
  %37 = getelementptr inbounds nuw %struct.ZSTDMT_bufferPool_s, ptr %36, i32 0, i32 0
  %38 = call i32 @pthread_mutex_unlock(ptr noundef %37) #11
  %39 = load i64, ptr %4, align 8, !tbaa !45
  %40 = add i64 88, %39
  %41 = load i64, ptr %6, align 8, !tbaa !45
  %42 = add i64 %40, %41
  call void @llvm.lifetime.end.p0(i64 8, ptr %6) #11
  call void @llvm.lifetime.end.p0(i64 4, ptr %5) #11
  call void @llvm.lifetime.end.p0(i64 8, ptr %4) #11
  call void @llvm.lifetime.end.p0(i64 8, ptr %3) #11
  ret i64 %42
}

; Function Attrs: nounwind uwtable
define i64 @ZSTDMT_sizeof_CCtx(ptr noundef %0) #0 {
  %2 = alloca i64, align 8
  %3 = alloca ptr, align 8
  store ptr %0, ptr %3, align 8, !tbaa !13
  %4 = load ptr, ptr %3, align 8, !tbaa !13
  %5 = icmp eq ptr %4, null
  br i1 %5, label %6, label %7

6:                                                ; preds = %1
  store i64 0, ptr %2, align 8
  br label %45

7:                                                ; preds = %1
  %8 = load ptr, ptr %3, align 8, !tbaa !13
  %9 = getelementptr inbounds nuw %struct.ZSTDMT_CCtx_s, ptr %8, i32 0, i32 0
  %10 = load ptr, ptr %9, align 8, !tbaa !37
  %11 = call i64 @POOL_sizeof(ptr noundef %10)
  %12 = add i64 3120, %11
  %13 = load ptr, ptr %3, align 8, !tbaa !13
  %14 = getelementptr inbounds nuw %struct.ZSTDMT_CCtx_s, ptr %13, i32 0, i32 2
  %15 = load ptr, ptr %14, align 8, !tbaa !40
  %16 = call i64 @ZSTDMT_sizeof_bufferPool(ptr noundef %15)
  %17 = add i64 %12, %16
  %18 = load ptr, ptr %3, align 8, !tbaa !13
  %19 = getelementptr inbounds nuw %struct.ZSTDMT_CCtx_s, ptr %18, i32 0, i32 13
  %20 = load i32, ptr %19, align 8, !tbaa !39
  %21 = add i32 %20, 1
  %22 = zext i32 %21 to i64
  %23 = mul i64 %22, 456
  %24 = add i64 %17, %23
  %25 = load ptr, ptr %3, align 8, !tbaa !13
  %26 = getelementptr inbounds nuw %struct.ZSTDMT_CCtx_s, ptr %25, i32 0, i32 3
  %27 = load ptr, ptr %26, align 8, !tbaa !41
  %28 = call i64 @ZSTDMT_sizeof_CCtxPool(ptr noundef %27)
  %29 = add i64 %24, %28
  %30 = load ptr, ptr %3, align 8, !tbaa !13
  %31 = getelementptr inbounds nuw %struct.ZSTDMT_CCtx_s, ptr %30, i32 0, i32 4
  %32 = load ptr, ptr %31, align 8, !tbaa !42
  %33 = call i64 @ZSTDMT_sizeof_seqPool(ptr noundef %32)
  %34 = add i64 %29, %33
  %35 = load ptr, ptr %3, align 8, !tbaa !13
  %36 = getelementptr inbounds nuw %struct.ZSTDMT_CCtx_s, ptr %35, i32 0, i32 22
  %37 = load ptr, ptr %36, align 8, !tbaa !46
  %38 = call i64 @ZSTD_sizeof_CDict(ptr noundef %37)
  %39 = add i64 %34, %38
  %40 = load ptr, ptr %3, align 8, !tbaa !13
  %41 = getelementptr inbounds nuw %struct.ZSTDMT_CCtx_s, ptr %40, i32 0, i32 10
  %42 = getelementptr inbounds nuw %struct.RoundBuff_t, ptr %41, i32 0, i32 1
  %43 = load i64, ptr %42, align 8, !tbaa !73
  %44 = add i64 %39, %43
  store i64 %44, ptr %2, align 8
  br label %45

45:                                               ; preds = %7, %6
  %46 = load i64, ptr %2, align 8
  ret i64 %46
}