; Function Attrs: nounwind uwtable
define i64 @ZSTDMT_sizeof_CCtx(ptr noundef readonly captures(address_is_null) %0) local_unnamed_addr #0 {
  %2 = icmp eq ptr %0, null
  br i1 %2, label %68, label %3

3:                                                ; preds = %1
  %4 = load ptr, ptr %0, align 8, !tbaa !34
  %5 = tail call i64 @POOL_sizeof(ptr noundef %4) #14
  %6 = getelementptr inbounds nuw i8, ptr %0, i64 16
  %7 = load ptr, ptr %6, align 8, !tbaa !37
  %8 = getelementptr inbounds nuw i8, ptr %7, i64 48
  %9 = load i32, ptr %8, align 8, !tbaa !53
  %10 = tail call i32 @pthread_mutex_lock(ptr noundef %7) #14
  %11 = load i32, ptr %8, align 8, !tbaa !53
  %.not.i = icmp eq i32 %11, 0
  br i1 %.not.i, label %ZSTDMT_sizeof_bufferPool.exit, label %.lr.ph.i

.lr.ph.i:                                         ; preds = %3
  %12 = getelementptr inbounds nuw i8, ptr %7, i64 80
  %13 = load ptr, ptr %12, align 8, !tbaa !54
  %wide.trip.count.i = zext i32 %11 to i64
  br label %14

14:                                               ; preds = %14, %.lr.ph.i
  %indvars.iv.i = phi i64 [ 0, %.lr.ph.i ], [ %indvars.iv.next.i, %14 ]
  %.012.i = phi i64 [ 0, %.lr.ph.i ], [ %17, %14 ]
  %15 = getelementptr inbounds nuw %struct.buffer_s, ptr %13, i64 %indvars.iv.i, i32 1
  %16 = load i64, ptr %15, align 8, !tbaa !66
  %17 = add i64 %16, %.012.i
  %indvars.iv.next.i = add nuw nsw i64 %indvars.iv.i, 1
  %exitcond.not.i = icmp eq i64 %indvars.iv.next.i, %wide.trip.count.i
  br i1 %exitcond.not.i, label %ZSTDMT_sizeof_bufferPool.exit, label %14, !llvm.loop !67

ZSTDMT_sizeof_bufferPool.exit:                    ; preds = %14, %3
  %.0.lcssa.i = phi i64 [ 0, %3 ], [ %17, %14 ]
  %18 = zext i32 %9 to i64
  %19 = tail call i32 @pthread_mutex_unlock(ptr noundef nonnull %7) #14
  %20 = getelementptr inbounds nuw i8, ptr %0, i64 3024
  %21 = load i32, ptr %20, align 8, !tbaa !36
  %22 = add i32 %21, 1
  %23 = zext i32 %22 to i64
  %24 = mul nuw nsw i64 %23, 456
  %25 = getelementptr inbounds nuw i8, ptr %0, i64 24
  %26 = load ptr, ptr %25, align 8, !tbaa !38
  %27 = tail call i32 @pthread_mutex_lock(ptr noundef %26) #14
  %28 = getelementptr inbounds nuw i8, ptr %26, i64 40
  %29 = load i32, ptr %28, align 8, !tbaa !62
  %.not.i9 = icmp eq i32 %29, 0
  br i1 %.not.i9, label %ZSTDMT_sizeof_CCtxPool.exit, label %.lr.ph.i10

.lr.ph.i10:                                       ; preds = %ZSTDMT_sizeof_bufferPool.exit
  %30 = getelementptr inbounds nuw i8, ptr %26, i64 72
  %wide.trip.count.i11 = zext i32 %29 to i64
  br label %31

31:                                               ; preds = %31, %.lr.ph.i10
  %indvars.iv.i12 = phi i64 [ 0, %.lr.ph.i10 ], [ %indvars.iv.next.i13, %31 ]
  %.01112.i = phi i64 [ 0, %.lr.ph.i10 ], [ %36, %31 ]
  %32 = load ptr, ptr %30, align 8, !tbaa !59
  %33 = getelementptr inbounds nuw ptr, ptr %32, i64 %indvars.iv.i12
  %34 = load ptr, ptr %33, align 8, !tbaa !63
  %35 = tail call i64 @ZSTD_sizeof_CCtx(ptr noundef %34) #14
  %36 = add i64 %35, %.01112.i
  %indvars.iv.next.i13 = add nuw nsw i64 %indvars.iv.i12, 1
  %exitcond.not.i14 = icmp eq i64 %indvars.iv.next.i13, %wide.trip.count.i11
  br i1 %exitcond.not.i14, label %ZSTDMT_sizeof_CCtxPool.exit, label %31, !llvm.loop !68

ZSTDMT_sizeof_CCtxPool.exit:                      ; preds = %31, %ZSTDMT_sizeof_bufferPool.exit
  %.011.lcssa.i = phi i64 [ 0, %ZSTDMT_sizeof_bufferPool.exit ], [ %36, %31 ]
  %37 = sext i32 %29 to i64
  %38 = shl nsw i64 %37, 3
  %39 = tail call i32 @pthread_mutex_unlock(ptr noundef nonnull %26) #14
  %40 = getelementptr inbounds nuw i8, ptr %0, i64 32
  %41 = load ptr, ptr %40, align 8, !tbaa !42
  %42 = getelementptr inbounds nuw i8, ptr %41, i64 48
  %43 = load i32, ptr %42, align 8, !tbaa !53
  %44 = tail call i32 @pthread_mutex_lock(ptr noundef %41) #14
  %45 = load i32, ptr %42, align 8, !tbaa !53
  %.not.i.i = icmp eq i32 %45, 0
  br i1 %.not.i.i, label %ZSTDMT_sizeof_seqPool.exit, label %.lr.ph.i.i

.lr.ph.i.i:                                       ; preds = %ZSTDMT_sizeof_CCtxPool.exit
  %46 = getelementptr inbounds nuw i8, ptr %41, i64 80
  %47 = load ptr, ptr %46, align 8, !tbaa !54
  %wide.trip.count.i.i = zext i32 %45 to i64
  br label %48

48:                                               ; preds = %48, %.lr.ph.i.i
  %indvars.iv.i.i = phi i64 [ 0, %.lr.ph.i.i ], [ %indvars.iv.next.i.i, %48 ]
  %.012.i.i = phi i64 [ 0, %.lr.ph.i.i ], [ %51, %48 ]
  %49 = getelementptr inbounds nuw %struct.buffer_s, ptr %47, i64 %indvars.iv.i.i, i32 1
  %50 = load i64, ptr %49, align 8, !tbaa !66
  %51 = add i64 %50, %.012.i.i
  %indvars.iv.next.i.i = add nuw nsw i64 %indvars.iv.i.i, 1
  %exitcond.not.i.i = icmp eq i64 %indvars.iv.next.i.i, %wide.trip.count.i.i
  br i1 %exitcond.not.i.i, label %ZSTDMT_sizeof_seqPool.exit, label %48, !llvm.loop !67

ZSTDMT_sizeof_seqPool.exit:                       ; preds = %48, %ZSTDMT_sizeof_CCtxPool.exit
  %.0.lcssa.i.i = phi i64 [ 0, %ZSTDMT_sizeof_CCtxPool.exit ], [ %51, %48 ]
  %52 = zext i32 %43 to i64
  %53 = tail call i32 @pthread_mutex_unlock(ptr noundef nonnull %41) #14
  %54 = getelementptr inbounds nuw i8, ptr %0, i64 3096
  %55 = load ptr, ptr %54, align 8, !tbaa !47
  %56 = tail call i64 @ZSTD_sizeof_CDict(ptr noundef %55) #14
  %57 = getelementptr inbounds nuw i8, ptr %0, i64 336
  %58 = load i64, ptr %57, align 8, !tbaa !69
  %reass.add = add nuw nsw i64 %52, %18
  %reass.mul = shl nuw nsw i64 %reass.add, 4
  %59 = add i64 %5, 3376
  %60 = add i64 %59, %.0.lcssa.i
  %61 = add i64 %60, %24
  %62 = add i64 %61, %38
  %63 = add i64 %62, %.011.lcssa.i
  %64 = add i64 %63, %reass.mul
  %65 = add i64 %64, %.0.lcssa.i.i
  %66 = add i64 %65, %56
  %67 = add i64 %66, %58
  br label %68

68:                                               ; preds = %1, %ZSTDMT_sizeof_seqPool.exit
  %.0 = phi i64 [ %67, %ZSTDMT_sizeof_seqPool.exit ], [ 0, %1 ]
  ret i64 %.0
}